target datalayout = "e-m:e-p270:32:32-p271:32:32-p272:64:64-i64:64-i128:128-f80:128-n8:16:32:64-S128"
target triple = "x86_64-pc-linux-gnu"

%class.LogDecorators = type { i32 }
%class.LogSelection = type { i64, [5 x i32], i8, i32, i64 }
%class.LogTagSet = type { ptr, i64, [5 x i32], [4 x i8], %class.LogOutputList, %class.LogDecorators, ptr }
%class.LogOutputList = type <{ [6 x ptr], i32, [4 x i8] }>

@_ZN9LogTagSet5_listE = external global ptr, align 8

; Function Attrs: mustprogress nounwind uwtable
define linkonce_odr hidden noundef ptr @_ZN9LogTagSet4nextEv(ptr noundef nonnull align 8 dereferenceable(112) %0) #1 comdat align 2 {
  %2 = alloca ptr, align 8
  store ptr %0, ptr %2, align 8
  %3 = load ptr, ptr %2, align 8
  %4 = getelementptr inbounds %class.LogTagSet, ptr %3, i32 0, i32 0
  %5 = load ptr, ptr %4, align 8
  ret ptr %5
}

; Function Attrs: mustprogress nounwind uwtable
define linkonce_odr hidden noundef ptr @_ZN9LogTagSet5firstEv() #1 comdat align 2 {
  %1 = load ptr, ptr @_ZN9LogTagSet5_listE, align 8
  ret ptr %1
}

; Function Attrs: mustprogress nounwind uwtable
define internal void @_ZL9sort_tagsPN6LogTag4typeE(ptr noundef %0) #1 {
  %2 = alloca ptr, align 8
  %3 = alloca i64, align 8
  store ptr %0, ptr %2, align 8
  store i64 0, ptr %3, align 8
  br label %4

4:                                                ; preds = %10, %1
  %5 = load ptr, ptr %2, align 8
  %6 = load i64, ptr %3, align 8
  %7 = getelementptr inbounds i32, ptr %5, i64 %6
  %8 = load i32, ptr %7, align 4
  %9 = icmp ne i32 %8, 0
  br i1 %9, label %10, label %13

10:                                               ; preds = %4
  %11 = load i64, ptr %3, align 8
  %12 = add i64 %11, 1
  store i64 %12, ptr %3, align 8
  br label %4, !llvm.loop !23

13:                                               ; preds = %4
  %14 = load ptr, ptr %2, align 8
  %15 = load i64, ptr %3, align 8
  call void @qsort(ptr noundef %14, i64 noundef %15, i64 noundef 4, ptr noundef @_ZL7tag_cmpPKN6LogTag4typeES2_)
  ret void
}

; Function Attrs: mustprogress nounwind uwtable
define linkonce_odr hidden noundef i32 @_ZNK9LogTagSet3tagEm(ptr noundef nonnull align 8 dereferenceable(112) %0, i64 noundef %1) #1 comdat align 2 {
  %3 = alloca ptr, align 8
  %4 = alloca i64, align 8
  store ptr %0, ptr %3, align 8
  store i64 %1, ptr %4, align 8
  %5 = load ptr, ptr %3, align 8
  %6 = getelementptr inbounds %class.LogTagSet, ptr %5, i32 0, i32 2
  %7 = load i64, ptr %4, align 8
  %8 = getelementptr inbounds [5 x i32], ptr %6, i64 0, i64 %7
  %9 = load i32, ptr %8, align 4
  ret i32 %9
}

; Function Attrs: mustprogress nounwind uwtable
define linkonce_odr hidden noundef i64 @_ZNK9LogTagSet5ntagsEv(ptr noundef nonnull align 8 dereferenceable(112) %0) #1 comdat align 2 {
  %2 = alloca ptr, align 8
  store ptr %0, ptr %2, align 8
  %3 = load ptr, ptr %2, align 8
  %4 = getelementptr inbounds %class.LogTagSet, ptr %3, i32 0, i32 1
  %5 = load i64, ptr %4, align 8
  ret i64 %5
}

; Function Attrs: mustprogress nounwind uwtable
define internal void @_ZL14add_selectionsPP12LogSelectionPmS2_RK9LogTagSetN8LogLevel4typeE(ptr noundef %0, ptr noundef %1, ptr noundef %2, ptr noundef nonnull align 8 dereferenceable(112) %3, i32 noundef %4) #1 {
  %6 = alloca ptr, align 8
  %7 = alloca ptr, align 8
  %8 = alloca ptr, align 8
  %9 = alloca ptr, align 8
  %10 = alloca i32, align 4
  %11 = alloca [5 x i32], align 16
  %12 = alloca i64, align 8
  %13 = alloca i64, align 8
  %14 = alloca [32 x [5 x i32]], align 16
  %15 = alloca i64, align 8
  %16 = alloca i8, align 1
  %17 = alloca i64, align 8
  %18 = alloca %class.LogSelection, align 8
  %19 = alloca %class.LogSelection, align 8
  %20 = alloca i8, align 1
  %21 = alloca i8, align 1
  %22 = alloca ptr, align 8
  store ptr %0, ptr %6, align 8
  store ptr %1, ptr %7, align 8
  store ptr %2, ptr %8, align 8
  store ptr %3, ptr %9, align 8
  store i32 %4, ptr %10, align 4
  call void @llvm.memset.p0.i64(ptr align 16 %11, i8 0, i64 20, i1 false)
  store i64 0, ptr %12, align 8
  br label %23

23:                                               ; preds = %34, %5
  %24 = load i64, ptr %12, align 8
  %25 = load ptr, ptr %9, align 8
  %26 = call noundef i64 @_ZNK9LogTagSet5ntagsEv(ptr noundef nonnull align 8 dereferenceable(112) %25)
  %27 = icmp ult i64 %24, %26
  br i1 %27, label %28, label %37

28:                                               ; preds = %23
  %29 = load ptr, ptr %9, align 8
  %30 = load i64, ptr %12, align 8
  %31 = call noundef i32 @_ZNK9LogTagSet3tagEm(ptr noundef nonnull align 8 dereferenceable(112) %29, i64 noundef %30)
  %32 = load i64, ptr %12, align 8
  %33 = getelementptr inbounds [5 x i32], ptr %11, i64 0, i64 %32
  store i32 %31, ptr %33, align 4
  br label %34

34:                                               ; preds = %28
  %35 = load i64, ptr %12, align 8
  %36 = add i64 %35, 1
  store i64 %36, ptr %12, align 8
  br label %23, !llvm.loop !18

37:                                               ; preds = %23
  store i64 0, ptr %13, align 8
  %38 = getelementptr inbounds [32 x [5 x i32]], ptr %14, i64 0, i64 0
  %39 = getelementptr inbounds [5 x i32], ptr %11, i64 0, i64 0
  call void @_ZL23generate_all_subsets_ofPA5_N6LogTag4typeEPmPKS0_PS0_mm(ptr noundef %38, ptr noundef %13, ptr noundef %39, ptr noundef null, i64 noundef 0, i64 noundef 0)
  store i64 0, ptr %15, align 8
  br label %40

40:                                               ; preds = %154, %37
  %41 = load i64, ptr %15, align 8
  %42 = load i64, ptr %13, align 8
  %43 = icmp ult i64 %41, %42
  br i1 %43, label %44, label %157

44:                                               ; preds = %40
  %45 = load i64, ptr %15, align 8
  %46 = getelementptr inbounds [32 x [5 x i32]], ptr %14, i64 0, i64 %45
  %47 = getelementptr inbounds [5 x i32], ptr %46, i64 0, i64 0
  call void @_ZL9sort_tagsPN6LogTag4typeE(ptr noundef %47)
  store i8 1, ptr %16, align 1
  store i64 0, ptr %17, align 8
  br label %48

48:                                               ; preds = %72, %44
  %49 = load i64, ptr %17, align 8
  %50 = load ptr, ptr %7, align 8
  %51 = load i64, ptr %50, align 8
  %52 = icmp ult i64 %49, %51
  br i1 %52, label %53, label %75

53:                                               ; preds = %48
  %54 = load i32, ptr %10, align 4
  %55 = load ptr, ptr %6, align 8
  %56 = load ptr, ptr %55, align 8
  %57 = load i64, ptr %17, align 8
  %58 = getelementptr inbounds %class.LogSelection, ptr %56, i64 %57
  %59 = call noundef i32 @_ZNK12LogSelection5levelEv(ptr noundef nonnull align 8 dereferenceable(48) %58)
  %60 = icmp eq i32 %54, %59
  br i1 %60, label %61, label %71

61:                                               ; preds = %53
  %62 = load ptr, ptr %6, align 8
  %63 = load ptr, ptr %62, align 8
  %64 = load i64, ptr %17, align 8
  %65 = getelementptr inbounds %class.LogSelection, ptr %63, i64 %64
  %66 = load i64, ptr %15, align 8
  %67 = getelementptr inbounds [32 x [5 x i32]], ptr %14, i64 0, i64 %66
  %68 = getelementptr inbounds [5 x i32], ptr %67, i64 0, i64 0
  %69 = call noundef zeroext i1 @_ZNK12LogSelection11consists_ofEPKN6LogTag4typeE(ptr noundef nonnull align 8 dereferenceable(48) %65, ptr noundef %68)
  br i1 %69, label %70, label %71

70:                                               ; preds = %61
  store i8 0, ptr %16, align 1
  br label %75

71:                                               ; preds = %61, %53
  br label %72

72:                                               ; preds = %71
  %73 = load i64, ptr %17, align 8
  %74 = add i64 %73, 1
  store i64 %74, ptr %17, align 8
  br label %48, !llvm.loop !19

75:                                               ; preds = %70, %48
  %76 = load i8, ptr %16, align 1
  %77 = trunc i8 %76 to i1
  br i1 %77, label %79, label %78

78:                                               ; preds = %75
  br label %154

79:                                               ; preds = %75
  %80 = load i64, ptr %15, align 8
  %81 = getelementptr inbounds [32 x [5 x i32]], ptr %14, i64 0, i64 %80
  %82 = getelementptr inbounds [5 x i32], ptr %81, i64 0, i64 0
  %83 = load i32, ptr %10, align 4
  call void @_ZN12LogSelectionC1EPKN6LogTag4typeEbN8LogLevel4typeE(ptr noundef nonnull align 8 dereferenceable(48) %18, ptr noundef %82, i1 noundef zeroext false, i32 noundef %83)
  %84 = load i64, ptr %15, align 8
  %85 = getelementptr inbounds [32 x [5 x i32]], ptr %14, i64 0, i64 %84
  %86 = getelementptr inbounds [5 x i32], ptr %85, i64 0, i64 0
  %87 = load i32, ptr %10, align 4
  call void @_ZN12LogSelectionC1EPKN6LogTag4typeEbN8LogLevel4typeE(ptr noundef nonnull align 8 dereferenceable(48) %19, ptr noundef %86, i1 noundef zeroext true, i32 noundef %87)
  store i8 0, ptr %20, align 1
  store i8 0, ptr %21, align 1
  %88 = call noundef ptr @_ZN9LogTagSet5firstEv()
  store ptr %88, ptr %22, align 8
  br label %89

89:                                               ; preds = %105, %79
  %90 = load ptr, ptr %22, align 8
  %91 = icmp ne ptr %90, null
  br i1 %91, label %92, label %108

92:                                               ; preds = %89
  %93 = load ptr, ptr %22, align 8
  %94 = call noundef zeroext i1 @_ZNK12LogSelection7selectsERK9LogTagSet(ptr noundef nonnull align 8 dereferenceable(48) %19, ptr noundef nonnull align 8 dereferenceable(112) %93)
  br i1 %94, label %96, label %95

95:                                               ; preds = %92
  br label %105

96:                                               ; preds = %92
  store i8 1, ptr %20, align 1
  %97 = load ptr, ptr %22, align 8
  %98 = call noundef zeroext i1 @_ZNK12LogSelection7selectsERK9LogTagSet(ptr noundef nonnull align 8 dereferenceable(48) %18, ptr noundef nonnull align 8 dereferenceable(112) %97)
  br i1 %98, label %99, label %100

99:                                               ; preds = %96
  store i8 1, ptr %21, align 1
  br label %100

100:                                              ; preds = %99, %96
  %101 = load i8, ptr %21, align 1
  %102 = trunc i8 %101 to i1
  br i1 %102, label %103, label %104

103:                                              ; preds = %100
  br label %108

104:                                              ; preds = %100
  br label %105

105:                                              ; preds = %104, %95
  %106 = load ptr, ptr %22, align 8
  %107 = call noundef ptr @_ZN9LogTagSet4nextEv(ptr noundef nonnull align 8 dereferenceable(112) %106)
  store ptr %107, ptr %22, align 8
  br label %89, !llvm.loop !20

108:                                              ; preds = %103, %89
  %109 = load i8, ptr %20, align 1
  %110 = trunc i8 %109 to i1
  br i1 %110, label %115, label %111

111:                                              ; preds = %108
  %112 = load i8, ptr %21, align 1
  %113 = trunc i8 %112 to i1
  br i1 %113, label %115, label %114

114:                                              ; preds = %111
  br label %154

115:                                              ; preds = %111, %108
  %116 = load ptr, ptr %7, align 8
  %117 = load i64, ptr %116, align 8
  %118 = add i64 %117, 2
  %119 = load ptr, ptr %8, align 8
  %120 = load i64, ptr %119, align 8
  %121 = icmp ugt i64 %118, %120
  br i1 %121, label %122, label %133

122:                                              ; preds = %115
  %123 = load ptr, ptr %8, align 8
  %124 = load i64, ptr %123, align 8
  %125 = mul i64 %124, 2
  store i64 %125, ptr %123, align 8
  %126 = load ptr, ptr %6, align 8
  %127 = load ptr, ptr %126, align 8
  %128 = load ptr, ptr %8, align 8
  %129 = load i64, ptr %128, align 8
  %130 = mul i64 %129, 48
  %131 = call noundef ptr @_Z14ReallocateHeapPcm8MEMFLAGSN17AllocFailStrategy13AllocFailEnumE(ptr noundef %127, i64 noundef %130, i8 noundef zeroext 17, i32 noundef 0)
  %132 = load ptr, ptr %6, align 8
  store ptr %131, ptr %132, align 8
  br label %133

133:                                              ; preds = %122, %115
  %134 = load i8, ptr %21, align 1
  %135 = trunc i8 %134 to i1
  br i1 %135, label %136, label %143

136:                                              ; preds = %133
  %137 = load ptr, ptr %6, align 8
  %138 = load ptr, ptr %137, align 8
  %139 = load ptr, ptr %7, align 8
  %140 = load i64, ptr %139, align 8
  %141 = add i64 %140, 1
  store i64 %141, ptr %139, align 8
  %142 = getelementptr inbounds %class.LogSelection, ptr %138, i64 %140
  call void @llvm.memcpy.p0.p0.i64(ptr align 8 %142, ptr align 8 %18, i64 48, i1 false)
  br label %143

143:                                              ; preds = %136, %133
  %144 = load i8, ptr %20, align 1
  %145 = trunc i8 %144 to i1
  br i1 %145, label %146, label %153

146:                                              ; preds = %143
  %147 = load ptr, ptr %6, align 8
  %148 = load ptr, ptr %147, align 8
  %149 = load ptr, ptr %7, align 8
  %150 = load i64, ptr %149, align 8
  %151 = add i64 %150, 1
  store i64 %151, ptr %149, align 8
  %152 = getelementptr inbounds %class.LogSelection, ptr %148, i64 %150
  call void @llvm.memcpy.p0.p0.i64(ptr align 8 %152, ptr align 8 %19, i64 48, i1 false)
  br label %153

153:                                              ; preds = %146, %143
  br label %154

154:                                              ; preds = %153, %114, %78
  %155 = load i64, ptr %15, align 8
  %156 = add i64 %155, 1
  store i64 %156, ptr %15, align 8
  br label %40, !llvm.loop !21

157:                                              ; preds = %40
  ret void
}